(dp0
S'1'
p1
(dp2
S'P'
p3
(dp4
S'BackStraight'
p5
(lp6
(lp7
F0.8880032057409757
aF-0.015186697948910987
aF-0.016850741120969175
aa(lp8
F0.939476700136527
aF0.32089861136988385
aF-0.11563235946777298
aa(lp9
F0.9514672659275659
aF0.25461627730362313
aF-0.17176615011904672
aa(lp10
F0.9552347611754036
aF0.23697625026801344
aF-0.17391319772992697
aa(lp11
F0.9811716024795625
aF0.13182747964049601
aF-0.12712859790952782
aa(lp12
F0.9912561609456
aF0.056464643280273494
aF-0.1147024914040989
aa(lp13
F0.9932880672887396
aF0.0038622798042033204
aF-0.11342075588806744
aa(lp14
F0.9738085486376895
aF-0.10719326061298028
aF-0.18542941378660568
aa(lp15
F0.810485127263544
aF-0.4306194706525366
aF-0.26202481360108115
aa(lp16
F-0.2845622321129133
aF-0.6697552650383806
aF-0.3114496927337369
aa(lp17
F-0.9392959112143913
aF-0.26458267706818667
aF-0.17531650651800867
aa(lp18
F-0.9913824422703111
aF-0.019189303007268056
aF-0.1151968240541542
aa(lp19
F-0.9799311021620636
aF0.09723168462515051
aF-0.16973559647393446
aa(lp20
F-0.9757819138876039
aF0.10472499317161713
aF-0.19157025173004238
aa(lp21
F-0.9710518815656607
aF0.10779935054768136
aF-0.21180636130817143
aa(lp22
F-0.9733095987480993
aF0.050432960775935905
aF-0.22018927181609832
aa(lp23
F-0.9847373685780596
aF0.059608811963013555
aF-0.1571880131013175
aa(lp24
F-0.9809163038069364
aF0.11587912814814867
aF-0.15456853075578564
aa(lp25
F-0.9784539052771704
aF0.10591249884072068
aF-0.16941363694399617
aasS'UpStraight'
p26
(lp27
(lp28
F-0.08090945297894744
aF-0.088768741608492
aF0.991015492993372
aa(lp29
F-0.022753823231716118
aF-0.019445777979287773
aF0.9993644936786011
aa(lp30
F0.017324021562051286
aF-0.00227595271723662
aF0.9996655537684552
aa(lp31
F0.09389814965240506
aF-0.004349636441280752
aF0.9944126431851463
aa(lp32
F0.318836855640032
aF-0.10507861537986207
aF0.9151816677934459
aa(lp33
F0.6741970918973954
aF-0.21020387248839223
aF0.017196273319997322
aa(lp34
F0.3485783706050821
aF-0.12846870525429016
aF-0.922373440777606
aa(lp35
F0.17631987104337135
aF-0.13906393594872246
aF-0.9741291649050368
aa(lp36
F0.08947213782030289
aF-0.11807746101997471
aF-0.9880682882561128
aa(lp37
F0.03952655028131103
aF-0.12271287663834497
aF-0.991440797468556
aa(lp38
F-0.014388190642142556
aF-0.10598791089288817
aF-0.9931795989159543
aa(lp39
F-0.08299839957630373
aF-0.05082482595350442
aF-0.9948964723886801
aa(lp40
F-0.15472124371644252
aF-0.13591970836541448
aF-0.9752707191571311
aassS'N'
p41
(dp42
S'GoStraight'
p43
(lp44
(lp45
F-0.1365676686693577
aF-0.3276095055852241
aF-0.8650856798449016
aa(lp46
F-0.6076321301434026
aF-0.20471862000559105
aF-0.7543195610392313
aa(lp47
F-0.7896476417150132
aF-0.16629898516617914
aF-0.5855345580277198
aa(lp48
F-0.9225468980372249
aF-0.14735369810926388
aF-0.3464279208607727
aa(lp49
F-0.9801885895274685
aF-0.07097162402943018
aF-0.16475835040646944
aa(lp50
F-0.9976182710377501
aF0.026843821006652387
aF-0.046907563459983134
aa(lp51
F-0.9980232678440442
aF0.060505877155722726
aF-0.011587019481521183
aa(lp52
F-0.9986132720205807
aF0.04709745752913512
aF-0.01251636579663674
aa(lp53
F-0.9978742114337886
aF0.006989724155403945
aF-0.04259571323573675
aa(lp54
F-0.9762356685251784
aF-0.16802520581151661
aF-0.036595857820523776
aa(lp55
F-0.45618544595999994
aF-0.5012607985000024
aF-0.2764725334005095
aa(lp56
F0.7646759732876287
aF-0.4028175035277953
aF-0.29134425289718624
aa(lp57
F0.9726001304848215
aF-0.16006864263712167
aF-0.15202401781236854
aa(lp58
F0.9853324913272329
aF-0.10375796969035553
aF-0.1340871843717704
aa(lp59
F0.9875397308527882
aF-0.0948128188229514
aF-0.12500064592503796
aa(lp60
F0.983759072393459
aF-0.10970285552937438
aF-0.14142882823591435
aa(lp61
F0.9734245029892733
aF-0.026997731398324752
aF-0.21279169364718364
aa(lp62
F0.9243167084357412
aF0.13132235633347772
aF-0.346384252457658
aa(lp63
F0.7924425001079146
aF0.35361323447495735
aF-0.49362309135604615
aa(lp64
F0.7077495714633403
aF0.38354402505894564
aF-0.5876953648778894
aasS'DownStraight'
p65
(lp66
(lp67
F-0.11423209209207447
aF-0.0280633313909026
aF-0.9870689892099697
aa(lp68
F0.03302431131173562
aF-0.006558835322512244
aF-0.9978695275771506
aa(lp69
F0.08548381056692599
aF-0.09143332064641972
aF-0.9919956839461981
aa(lp70
F0.08686181290884876
aF-0.12233158600036718
aF-0.9883489263579144
aa(lp71
F0.06486856881321794
aF-0.17028970412654346
aF-0.9831542104911527
aa(lp72
F0.05964701758490404
aF-0.19478994878401099
aF-0.9789550870933995
aa(lp73
F0.2705448766683047
aF-0.41037589518499873
aF-0.7249370951102545
aa(lp74
F0.4175817956711777
aF-0.4218019061087666
aF0.4495134244156007
aa(lp75
F0.1832677214464974
aF-0.10364607580385972
aF0.9743062686209883
aa(lp76
F0.1189451199265277
aF-0.03448265780862929
aF0.9920942340170953
aa(lp77
F0.027758125752802714
aF-0.025914692429692906
aF0.998059036986617
aa(lp78
F-0.08167534078617962
aF0.014048276842570087
aF0.9961861245587142
aa(lp79
F-0.1117465781015585
aF-0.07017795709392245
aF0.9907642326638185
aa(lp80
F-0.16882456167098933
aF-0.15979783732705594
aF0.9678764685392823
aasssS'0'
p81
(dp82
g3
(dp83
S'RightBackStraight'
p84
(lp85
(lp86
F0.6529739048947292
aF-0.6494110222389734
aF-0.06422906940958875
aa(lp87
F0.8377693021225661
aF-0.5281235315944728
aF-0.05855914611982386
aa(lp88
F0.7942388156561048
aF-0.5879341198859641
aF-0.14356202763430195
aa(lp89
F0.8195178028017959
aF-0.4822450551926307
aF-0.2969719482767037
aa(lp90
F0.7821980264107963
aF-0.5141502524374599
aF-0.35099794212289076
aa(lp91
F0.8006416540660052
aF-0.49466975414367764
aF-0.33733149022472264
aa(lp92
F0.7975918267987524
aF-0.47261620011865224
aF-0.3712229117293581
aa(lp93
F0.868988039195132
aF-0.3184792084990847
aF-0.3651976646341427
aa(lp94
F0.8600561111691731
aF0.0686589647614645
aF-0.4296149729615394
aa(lp95
F0.3723387936826829
aF0.7489503474384003
aF-0.2792728856697765
aa(lp96
F-0.27731265995221344
aF0.9402969621855722
aF0.12935234813271582
aa(lp97
F-0.42517000254176235
aF0.8791702952127082
aF0.2142676859030856
aa(lp98
F-0.4335653001529538
aF0.8796578397187571
aF0.19401644250766437
aa(lp99
F-0.41297364119727914
aF0.9002087996435246
aF0.13537952912657494
aa(lp100
F-0.3412019342734196
aF0.9373403715499672
aF0.05177048854203241
aa(lp101
F-0.2374732097430399
aF0.9688194286723747
aF0.03212834835389921
aasS'LeftGoStraight'
p102
(lp103
(lp104
F-0.7302640816900865
aF-0.680892175181794
aF0.037323209946612895
aa(lp105
F-0.7710820147000828
aF-0.613068961622737
aF0.1447625707723918
aa(lp106
F-0.7982356577614255
aF-0.5468958710579971
aF0.24639528646479755
aa(lp107
F-0.8210436727845171
aF-0.5542854757946851
aF0.11386711035701763
aa(lp108
F-0.8023717151998709
aF-0.5949999200502345
aF0.011940745309421802
aa(lp109
F-0.8357027586937527
aF-0.5443821789337564
aF-0.010119114869145998
aa(lp110
F-0.8886577993736594
aF-0.45799091285554533
aF0.010699884477707505
aa(lp111
F-0.902065892058247
aF-0.4283168586579801
aF0.04944248002620644
aa(lp112
F-0.8889470381540959
aF-0.4470908408009002
aF0.09476877682233145
aa(lp113
F-0.8453341733346076
aF-0.5113214813368789
aF0.1505079094742779
aa(lp114
F-0.7734101626794971
aF-0.6071568208087904
aF0.1638366207200719
aa(lp115
F-0.37533436221279226
aF-0.880588070143174
aF0.10208054654149903
aa(lp116
F0.5259601609762755
aF-0.6276695943602915
aF-0.22469589270027054
aa(lp117
F0.9213141041432688
aF0.0022912104336215537
aF-0.3664297022178554
aa(lp118
F0.9272807216862075
aF0.15024389421999462
aF-0.3362133987095218
aa(lp119
F0.9242186171852553
aF0.22638430178800506
aF-0.30477681160310366
aa(lp120
F0.9481903685800643
aF0.20311800530461901
aF-0.24258158796132173
aa(lp121
F0.9241183093881576
aF0.31253812203485337
aF-0.20825345940352788
aa(lp122
F0.9077057243176424
aF0.3883103491821862
aF-0.149527970216251
aa(lp123
F0.7981045385347189
aF0.575641989671224
aF-0.1589487860269762
aasS'Left'
p124
(lp125
(lp126
F-0.34728934330040573
aF-0.9230531633999246
aF-0.10673033503853517
aa(lp127
F-0.3031573429520456
aF-0.9458809142790338
aF0.09638590630809597
aa(lp128
F-0.2802073616075834
aF-0.9461310758716915
aF0.16162679427032642
aa(lp129
F-0.27933996430865343
aF-0.9536559578480347
aF0.10766296971305968
aa(lp130
F-0.23258304741943212
aF-0.9712992274014547
aF0.04290260115158672
aa(lp131
F-0.17242651933150943
aF-0.9846217208672315
aF0.005917365067311028
aa(lp132
F0.15536223562011736
aF-0.9586862629194182
aF0.030858581662084415
aa(lp133
F0.8692050525043659
aF-0.0356171002934124
aF0.1854651464209279
aa(lp134
F0.681097894731099
aF0.71083794192862
aF0.12388998743874383
aa(lp135
F0.5265827200438474
aF0.8447679087302615
aF0.07668247631424642
aa(lp136
F0.4527625062333267
aF0.8907179896338171
aF0.031769062065250424
aa(lp137
F0.4354341269517347
aF0.90005042189738
aF0.017126382628354937
aa(lp138
F0.4335465113060031
aF0.9010150586664595
aF0.005872064583790801
aa(lp139
F0.34622531660375977
aF0.92791113214326
aF-0.0837124618695057
aassg41
(dp140
S'LeftBackStraight'
p141
(lp142
(lp143
F0.9453374531124838
aF0.3208504539410401
aF-0.043937956659406835
aa(lp144
F0.9404645379116248
aF0.3270717231346505
aF-0.09077868500162989
aa(lp145
F0.932252095637038
aF0.3264480272735553
aF-0.15111972102216353
aa(lp146
F0.9341627863565384
aF0.2075577572526857
aF-0.27213047258523304
aa(lp147
F0.8988490335375249
aF0.010258636628634698
aF-0.40895028604380956
aa(lp148
F0.544701883306974
aF-0.6116476052922214
aF-0.4896263219110897
aa(lp149
F-0.012756945654094543
aF-0.9176079272399059
aF-0.30374269737250703
aa(lp150
F-0.49910406403477126
aF-0.8408203518589042
aF-0.0075389259080334
aa(lp151
F-0.6896368730625013
aF-0.7006943070538783
aF0.17055007115736412
aa(lp152
F-0.7536119721962621
aF-0.6074866209753623
aF0.24252368609581412
aa(lp153
F-0.7899699653475559
aF-0.5477299358273044
aF0.2737170102882996
aa(lp154
F-0.7840106237534339
aF-0.5118938931111573
aF0.3493949983412176
aa(lp155
F-0.7972184689486405
aF-0.4632325949552526
aF0.3867162442250134
aa(lp156
F-0.8194032428390366
aF-0.4265251101461413
aF0.38265437257174767
aa(lp157
F-0.8619683596725967
aF-0.32672427894073675
aF0.3805773880509282
aa(lp158
F-0.9288136792479694
aF-0.036519234105575664
aF0.020861345525376628
aasS'Right'
p159
(lp160
(lp161
F-0.06041201694375725
aF0.5189766150868544
aF0.34199069022984474
aa(lp162
F0.3499852419507806
aF0.9242622404261887
aF0.14599987995931918
aa(lp163
F0.3528163083640633
aF0.9324934889497579
aF0.07460025995747756
aa(lp164
F0.39141110083791447
aF0.9183049050685533
aF0.054298154942146605
aa(lp165
F0.405635558762659
aF0.9136918665523014
aF0.021719195969108523
aa(lp166
F0.4475239806604936
aF0.8924295965836724
aF0.03815112050795897
aa(lp167
F0.51760552288475
aF0.8510266573353066
aF0.07724736370352384
aa(lp168
F0.7517524704330558
aF0.550404971251021
aF0.21892893974973385
aa(lp169
F0.8490470060157255
aF-0.2597491653572867
aF0.2890145428725839
aa(lp170
F0.5112880344333304
aF-0.825449166786156
aF0.12582423825314198
aa(lp171
F0.19476241121480078
aF-0.9769895701270982
aF0.004180828025530479
aa(lp172
F0.06058284300134986
aF-0.9949521303779333
aF-0.057660976378792236
aa(lp173
F-0.05650528711486618
aF-0.992564648692849
aF-0.10054564585928878
aa(lp174
F-0.1243635600749892
aF-0.9825761438855934
aF-0.1364731098841885
aa(lp175
F-0.19167590181438252
aF-0.9657410631689587
aF-0.1702992999041202
aa(lp176
F-0.2437957577899477
aF-0.9548892240525471
aF-0.16786024623935822
aa(lp177
F-0.27932380887686575
aF-0.949639780388176
aF-0.13821661037114302
aasS'RightGoStraight'
p178
(lp179
(lp180
F-0.853204431593647
aF-0.3937677414057921
aF-0.044487053773114356
aa(lp181
F-0.9628503111282904
aF0.19097101028486613
aF-0.04497151901319889
aa(lp182
F-0.8474215307544168
aF0.5143549881045119
aF0.07475998477632366
aa(lp183
F-0.7806436809721117
aF0.5891285671789621
aF0.19959799685935317
aa(lp184
F-0.7115047252439536
aF0.6400882478969844
aF0.28803912585330416
aa(lp185
F-0.6883217797180037
aF0.642077170748674
aF0.3369571760486984
aa(lp186
F-0.6411838330415847
aF0.6967033359422201
aF0.3200008205696154
aa(lp187
F-0.5366926414822865
aF0.7794273826406912
aF0.3106736280563656
aa(lp188
F-0.22349406448275158
aF0.9006732882532279
aF0.16220004316856984
aa(lp189
F0.815994204795515
aF0.20838645749744789
aF-0.2703399748435669
aa(lp190
F0.9192728554914492
aF-0.2677567330773253
aF-0.26912837977088877
aa(lp191
F0.8557686698686827
aF-0.4619085955667202
aF-0.2281349953559549
aa(lp192
F0.7829919754860805
aF-0.5667294408541003
aF-0.24862294725095493
aa(lp193
F0.6792665601714097
aF-0.6324153058573763
aF-0.35727393861464135
aa(lp194
F0.5053524801930103
aF-0.5860730501627351
aF-0.6206063382665634
aasssS'2'
p195
(dp196
g3
(dp197
sg41
(dp198
ss.