(dp0
S'1'
p1
(dp2
S'P'
p3
(dp4
S'BackStraight'
p5
(lp6
(lp7
F0.8880032057409757
aF-0.015186697948910987
aF-0.016850741120969175
aF0.4883752647772132
aF-0.5166768230952723
aF0.6848027008915156
aa(lp8
F0.939476700136527
aF0.32089861136988385
aF-0.11563235946777298
aF-0.0007410517960013269
aF-0.5567233986998454
aF0.8001310519160489
aa(lp9
F0.9514672659275659
aF0.25461627730362313
aF-0.17176615011904672
aF-0.484465207584366
aF-0.2740923393392251
aF0.8097972626508253
aa(lp10
F0.9552347611754036
aF0.23697625026801344
aF-0.17391319772992697
aF-0.5957374044166689
aF0.3469387794829946
aF0.6818625199243159
aa(lp11
F0.9811716024795625
aF0.13182747964049601
aF-0.12712859790952782
aF-0.3491675564152716
aF0.7245534800639155
aF0.550833474318108
aa(lp12
F0.9912561609456
aF0.056464643280273494
aF-0.1147024914040989
aF-0.07656406087684117
aF0.8766059665107576
aF0.4683160188747231
aa(lp13
F0.9932880672887396
aF0.0038622798042033204
aF-0.11342075588806744
aF0.06433921095692449
aF0.9166490964377634
aF0.3911050303161445
aa(lp14
F0.9738085486376895
aF-0.10719326061298028
aF-0.18542941378660568
aF0.16341165303643487
aF0.9337916740741765
aF0.31463677618013863
aa(lp15
F0.810485127263544
aF-0.4306194706525366
aF-0.26202481360108115
aF0.2813352296373046
aF0.9285240656329844
aF0.23159706569512092
aa(lp16
F-0.2845622321129133
aF-0.6697552650383806
aF-0.3114496927337369
aF0.41437358879183156
aF0.8978666565046723
aF0.1385532939396423
aa(lp17
F-0.9392959112143913
aF-0.26458267706818667
aF-0.17531650651800867
aF0.501232340476124
aF0.8614941761029147
aF0.06932411791529586
aa(lp18
F-0.9913824422703111
aF-0.019189303007268056
aF-0.1151968240541542
aF0.5590376252671825
aF0.8270449084505138
aF-0.03285674524994309
aa(lp19
F-0.9799311021620636
aF0.09723168462515051
aF-0.16973559647393446
aF0.4414314012512749
aF0.8762688876394686
aF-0.1577310443035951
aa(lp20
F-0.9757819138876039
aF0.10472499317161713
aF-0.19157025173004238
aF0.20181170919070018
aF0.9262576284423524
aF-0.298702675235372
aa(lp21
F-0.9710518815656607
aF0.10779935054768136
aF-0.21180636130817143
aF-0.11903289049785379
aF0.8495895680710408
aF-0.479571542109171
aa(lp22
F-0.9733095987480993
aF0.050432960775935905
aF-0.22018927181609832
aF-0.40240079254248423
aF0.784184418839711
aF-0.46942633030608183
aa(lp23
F-0.9847373685780596
aF0.059608811963013555
aF-0.1571880131013175
aF-0.369069211569513
aF0.8056285973401622
aF-0.4583916137937625
aa(lp24
F-0.9809163038069364
aF0.11587912814814867
aF-0.15456853075578564
aF-0.5256795750557324
aF0.8041778476805286
aF-0.26046308473259827
aa(lp25
F-0.9784539052771704
aF0.10591249884072068
aF-0.16941363694399617
aF-0.3640462479285396
aF0.9058417334657621
aF-0.1594550683243481
aasS'UpStraight'
p26
(lp27
(lp28
F-0.08090945297894744
aF-0.088768741608492
aF0.991015492993372
aF-0.0662012788131942
aF-0.9419529795118089
aF0.30559933208046636
aa(lp29
F-0.022753823231716118
aF-0.019445777979287773
aF0.9993644936786011
aF0.20699641671144328
aF-0.2478641908491429
aF0.6897430212362727
aa(lp30
F0.017324021562051286
aF-0.00227595271723662
aF0.9996655537684552
aF0.37233653069186945
aF0.7726563124987709
aF0.4531250877716049
aa(lp31
F0.09389814965240506
aF-0.004349636441280752
aF0.9944126431851463
aF0.46403463214279134
aF0.8730758783730527
aF0.13664556129741756
aa(lp32
F0.318836855640032
aF-0.10507861537986207
aF0.9151816677934459
aF0.5119664484031855
aF0.8573775696874268
aF0.025435814671997823
aa(lp33
F0.6741970918973954
aF-0.21020387248839223
aF0.017196273319997322
aF0.5065306969709589
aF0.8611063084712544
aF-0.024301406364996416
aa(lp34
F0.3485783706050821
aF-0.12846870525429016
aF-0.922373440777606
aF0.3982617587913269
aF0.9156736265407692
aF-0.02184937025605416
aa(lp35
F0.17631987104337135
aF-0.13906393594872246
aF-0.9741291649050368
aF0.21328343410256456
aF0.9747778259866708
aF0.009744458918522318
aa(lp36
F0.08947213782030289
aF-0.11807746101997471
aF-0.9880682882561128
aF-0.011299584418079111
aF0.9939446438204558
aF0.031934509193141065
aa(lp37
F0.03952655028131103
aF-0.12271287663834497
aF-0.991440797468556
aF-0.16913874224230313
aF0.9817538746177227
aF-0.05129642097569272
aa(lp38
F-0.014388190642142556
aF-0.10598791089288817
aF-0.9931795989159543
aF-0.10748155151088097
aF0.9765164150537462
aF-0.17929133759941615
aa(lp39
F-0.08299839957630373
aF-0.05082482595350442
aF-0.9948964723886801
aF-0.21611887725904322
aF0.9380053329120461
aF-0.2462514439425749
aa(lp40
F-0.15472124371644252
aF-0.13591970836541448
aF-0.9752707191571311
aF-0.4050424866508291
aF0.6860698928622361
aF-0.5009794358594485
aassS'N'
p41
(dp42
S'GoStraight'
p43
(lp44
(lp45
F-0.1365676686693577
aF-0.3276095055852241
aF-0.8650856798449016
aF0.7833554007706883
aF0.21565779633814725
aF0.4414682964838911
aa(lp46
F-0.6076321301434026
aF-0.20471862000559105
aF-0.7543195610392313
aF0.4013028260902248
aF-0.571596666921605
aF0.6305550013596559
aa(lp47
F-0.7896476417150132
aF-0.16629898516617914
aF-0.5855345580277198
aF0.11147746337323196
aF-0.867322396138399
aF0.4771606057469856
aa(lp48
F-0.9225468980372249
aF-0.14735369810926388
aF-0.3464279208607727
aF-0.10237208376203251
aF-0.9205357906368024
aF0.3742253185728185
aa(lp49
F-0.9801885895274685
aF-0.07097162402943018
aF-0.16475835040646944
aF-0.17670321076085108
aF-0.8850909533249871
aF0.42803977697806955
aa(lp50
F-0.9976182710377501
aF0.026843821006652387
aF-0.046907563459983134
aF-0.19423384498413185
aF-0.8506107319810389
aF0.4879519537271083
aa(lp51
F-0.9980232678440442
aF0.060505877155722726
aF-0.011587019481521183
aF-0.20264294871093752
aF-0.8304753174572834
aF0.5181435809720581
aa(lp52
F-0.9986132720205807
aF0.04709745752913512
aF-0.01251636579663674
aF-0.1983024034180083
aF-0.8712541340971195
aF0.4422795013701926
aa(lp53
F-0.9978742114337886
aF0.006989724155403945
aF-0.04259571323573675
aF-0.19120887152019042
aF-0.9346426649897603
aF0.292965414277432
aa(lp54
F-0.9762356685251784
aF-0.16802520581151661
aF-0.036595857820523776
aF-0.16046551519204624
aF-0.9667211110005741
aF0.1797197460013401
aa(lp55
F-0.45618544595999994
aF-0.5012607985000024
aF-0.2764725334005095
aF-0.03452203517752903
aF-0.9972194130776478
aF0.02802597929155619
aa(lp56
F0.7646759732876287
aF-0.4028175035277953
aF-0.29134425289718624
aF0.006204708990098877
aF-0.9923804951288572
aF-0.10419869232047614
aa(lp57
F0.9726001304848215
aF-0.16006864263712167
aF-0.15202401781236854
aF0.047894423355631516
aF-0.9715803159642993
aF-0.2251405329982257
aa(lp58
F0.9853324913272329
aF-0.10375796969035553
aF-0.1340871843717704
aF0.012293892516528045
aF-0.9308359853401565
aF-0.3617495855793135
aa(lp59
F0.9875397308527882
aF-0.0948128188229514
aF-0.12500064592503796
aF-0.04981217441316619
aF-0.8958461217484525
aF-0.4401912425004524
aa(lp60
F0.983759072393459
aF-0.10970285552937438
aF-0.14142882823591435
aF-0.03200497578735271
aF-0.8698402749971696
aF-0.48740307195375643
aa(lp61
F0.9734245029892733
aF-0.026997731398324752
aF-0.21279169364718364
aF0.10670092048859961
aF-0.8433032996722348
aF-0.5240749430219666
aa(lp62
F0.9243167084357412
aF0.13132235633347772
aF-0.346384252457658
aF0.19204062493260599
aF-0.9011579792807153
aF-0.37095554797160385
aa(lp63
F0.7924425001079146
aF0.35361323447495735
aF-0.49362309135604615
aF0.15162566500918623
aF-0.9336817947708734
aF-0.2896770535911733
aa(lp64
F0.7077495714633403
aF0.38354402505894564
aF-0.5876953648778894
aF-0.2889465172657384
aF-0.8852047708737936
aF-0.29773237179024714
aasS'DownStraight'
p65
(lp66
(lp67
F-0.11423209209207447
aF-0.0280633313909026
aF-0.9870689892099697
aF-0.6935994478949234
aF0.3964154637326518
aF-0.32278604384564435
aa(lp68
F0.03302431131173562
aF-0.006558835322512244
aF-0.9978695275771506
aF-0.9381806094778408
aF-0.12781979031276988
aF-0.30354581156475374
aa(lp69
F0.08548381056692599
aF-0.09143332064641972
aF-0.9919956839461981
aF-0.786089792332729
aF-0.4663033883517457
aF-0.3660804823897141
aa(lp70
F0.08686181290884876
aF-0.12233158600036718
aF-0.9883489263579144
aF-0.5985829053467298
aF-0.7287963847873731
aF-0.30953209383619007
aa(lp71
F0.06486856881321794
aF-0.17028970412654346
aF-0.9831542104911527
aF-0.3581086261969895
aF-0.8991748514805724
aF-0.22539113139232392
aa(lp72
F0.05964701758490404
aF-0.19478994878401099
aF-0.9789550870933995
aF-0.19826457115866597
aF-0.9663700010791274
aF-0.15771769789385776
aa(lp73
F0.2705448766683047
aF-0.41037589518499873
aF-0.7249370951102545
aF-0.12717646154121465
aF-0.985541041024799
aF-0.11011150113624069
aa(lp74
F0.4175817956711777
aF-0.4218019061087666
aF0.4495134244156007
aF-0.11151317957388325
aF-0.990486354853509
aF-0.0788049799654574
aa(lp75
F0.1832677214464974
aF-0.10364607580385972
aF0.9743062686209883
aF-0.12294946091050202
aF-0.9915601750168849
aF-0.034997458283391014
aa(lp76
F0.1189451199265277
aF-0.03448265780862929
aF0.9920942340170953
aF-0.1575666751856117
aF-0.9870983858315795
aF-0.006639364997462188
aa(lp77
F0.027758125752802714
aF-0.025914692429692906
aF0.998059036986617
aF-0.2875733042624173
aF-0.9551342752428176
aF0.05767554743189292
aa(lp78
F-0.08167534078617962
aF0.014048276842570087
aF0.9961861245587142
aF-0.46561943968411756
aF-0.8800200619583025
aF0.023446693339453886
aa(lp79
F-0.1117465781015585
aF-0.07017795709392245
aF0.9907642326638185
aF-0.6172747187758302
aF-0.7842283529145236
aF-0.029418967731422805
aa(lp80
F-0.16882456167098933
aF-0.15979783732705594
aF0.9678764685392823
aF-0.3843306424884608
aF0.16143960736785035
aF-0.12359206704022581
aasssS'0'
p81
(dp82
g3
(dp83
S'RightBackStraight'
p84
(lp85
(lp86
F0.6529739048947292
aF-0.6494110222389734
aF-0.06422906940958875
aF-0.3257271282155154
aF0.0029188786049872853
aF0.7257115745989778
aa(lp87
F0.8377693021225661
aF-0.5281235315944728
aF-0.05855914611982386
aF0.22664952872364572
aF0.2982956270266653
aF0.9201829819049339
aa(lp88
F0.7942388156561048
aF-0.5879341198859641
aF-0.14356202763430195
aF0.4184119476853283
aF0.37247899299212617
aF0.8125432788972613
aa(lp89
F0.8195178028017959
aF-0.4822450551926307
aF-0.2969719482767037
aF0.4424793311895081
aF0.3846757544732217
aF0.8052088004865811
aa(lp90
F0.7821980264107963
aF-0.5141502524374599
aF-0.35099794212289076
aF0.3276128316544876
aF0.4088912875777802
aF0.8511970776874414
aa(lp91
F0.8006416540660052
aF-0.49466975414367764
aF-0.33733149022472264
aF0.2289392964061782
aF0.4073647241603885
aF0.883382152484865
aa(lp92
F0.7975918267987524
aF-0.47261620011865224
aF-0.3712229117293581
aF0.1777073666606197
aF0.4031048883202161
aF0.8976133397108775
aa(lp93
F0.868988039195132
aF-0.3184792084990847
aF-0.3651976646341427
aF0.13905903198565034
aF0.37946578166852385
aF0.9142679795241196
aa(lp94
F0.8600561111691731
aF0.0686589647614645
aF-0.4296149729615394
aF0.11187336011006918
aF0.3545908691936342
aF0.9282755920562019
aa(lp95
F0.3723387936826829
aF0.7489503474384003
aF-0.2792728856697765
aF0.10386341501227855
aF0.3292993396158489
aF0.9382206457799183
aa(lp96
F-0.27731265995221344
aF0.9402969621855722
aF0.12935234813271582
aF0.018714732542167115
aF0.2785534576402729
aF0.9595694048654392
aa(lp97
F-0.42517000254176235
aF0.8791702952127082
aF0.2142676859030856
aF-0.05872390206647683
aF0.2698710932547316
aF0.9605677416506067
aa(lp98
F-0.4335653001529538
aF0.8796578397187571
aF0.19401644250766437
aF-0.10408869559855413
aF0.31082311869092283
aF0.9444000899281968
aa(lp99
F-0.41297364119727914
aF0.9002087996435246
aF0.13537952912657494
aF-0.14892110311657414
aF0.3513252764468294
aF0.9239726503578907
aa(lp100
F-0.3412019342734196
aF0.9373403715499672
aF0.05177048854203241
aF-0.08536270562338749
aF0.38441769165917916
aF0.9186736741118224
aa(lp101
F-0.2374732097430399
aF0.9688194286723747
aF0.03212834835389921
aF-0.16196808105785215
aF0.2508123499629283
aF0.9481997955168431
aasS'LeftGoStraight'
p102
(lp103
(lp104
F-0.7302640816900865
aF-0.680892175181794
aF0.037323209946612895
aF-0.047595179968006225
aF-0.9539984547910181
aF-0.261479072970675
aa(lp105
F-0.7710820147000828
aF-0.613068961622737
aF0.1447625707723918
aF0.07728248042867633
aF-0.9683063037565152
aF0.041206897212321576
aa(lp106
F-0.7982356577614255
aF-0.5468958710579971
aF0.24639528646479755
aF-0.4838295728949355
aF-0.2652882328217005
aF0.8237149469398383
aa(lp107
F-0.8210436727845171
aF-0.5542854757946851
aF0.11386711035701763
aF-0.355131489918924
aF-0.15354346382521233
aF0.9215548272303691
aa(lp108
F-0.8023717151998709
aF-0.5949999200502345
aF0.011940745309421802
aF-0.23813579321510306
aF-0.16950625177702838
aF0.9495563691193447
aa(lp109
F-0.8357027586937527
aF-0.5443821789337564
aF-0.010119114869145998
aF-0.07982416148660013
aF-0.20382790047510008
aF0.9747724130525
aa(lp110
F-0.8886577993736594
aF-0.45799091285554533
aF0.010699884477707505
aF-0.125527636620044
aF-0.2266387831790588
aF0.9655784391727761
aa(lp111
F-0.902065892058247
aF-0.4283168586579801
aF0.04944248002620644
aF-0.16266362068716267
aF-0.2328983636832437
aF0.9586633544960373
aa(lp112
F-0.8889470381540959
aF-0.4470908408009002
aF0.09476877682233145
aF-0.15927057689857568
aF-0.24346524714311257
aF0.9565234189797072
aa(lp113
F-0.8453341733346076
aF-0.5113214813368789
aF0.1505079094742779
aF-0.06984299026968387
aF-0.26559697703284707
aF0.9607164733756087
aa(lp114
F-0.7734101626794971
aF-0.6071568208087904
aF0.1638366207200719
aF0.023155505491602172
aF-0.3021737512422002
aF0.951653872689841
aa(lp115
F-0.37533436221279226
aF-0.880588070143174
aF0.10208054654149903
aF0.17103136852533055
aF-0.3811722280194193
aF0.9064199012212188
aa(lp116
F0.5259601609762755
aF-0.6276695943602915
aF-0.22469589270027054
aF0.3231952588357983
aF-0.46399260327170866
aF0.8203271788002293
aa(lp117
F0.9213141041432688
aF0.0022912104336215537
aF-0.3664297022178554
aF0.2303249642234561
aF-0.6673809823879817
aF0.6916136825333676
aa(lp118
F0.9272807216862075
aF0.15024389421999462
aF-0.3362133987095218
aF0.10257343027569445
aF-0.8300792508077971
aF0.5348564781127096
aa(lp119
F0.9242186171852553
aF0.22638430178800506
aF-0.30477681160310366
aF-0.3261969301948735
aF-0.8373916648264695
aF0.39863639288876546
aa(lp120
F0.9481903685800643
aF0.20311800530461901
aF-0.24258158796132173
aF-0.3732591730582159
aF-0.8357502405473094
aF0.39179019461196574
aa(lp121
F0.9241183093881576
aF0.31253812203485337
aF-0.20825345940352788
aF-0.3263478815925138
aF-0.813450371159649
aF0.47480408084492565
aa(lp122
F0.9077057243176424
aF0.3883103491821862
aF-0.149527970216251
aF0.06398506366419793
aF-0.7899339324100579
aF0.5312804921603866
aa(lp123
F0.7981045385347189
aF0.575641989671224
aF-0.1589487860269762
aF0.5006515910098507
aF-0.703601812236715
aF0.5019142639526081
aasS'Left'
p124
(lp125
(lp126
F-0.34728934330040573
aF-0.9230531633999246
aF-0.10673033503853517
aF-0.2871019562033034
aF-0.6084907861724044
aF-0.7350191505919388
aa(lp127
F-0.3031573429520456
aF-0.9458809142790338
aF0.09638590630809597
aF-0.4752417090855017
aF-0.657286981692531
aF-0.5082654808733763
aa(lp128
F-0.2802073616075834
aF-0.9461310758716915
aF0.16162679427032642
aF-0.7964330273427263
aF-0.3748167687589375
aF0.12836380821745155
aa(lp129
F-0.27933996430865343
aF-0.9536559578480347
aF0.10766296971305968
aF-0.6009701455532278
aF0.07381638028767941
aF0.7846977467686328
aa(lp130
F-0.23258304741943212
aF-0.9712992274014547
aF0.04290260115158672
aF-0.35832589242928947
aF0.09726190073714586
aF0.9256752109641592
aa(lp131
F-0.17242651933150943
aF-0.9846217208672315
aF0.005917365067311028
aF-0.2656278391149844
aF0.03954549279438114
aF0.963105335849695
aa(lp132
F0.15536223562011736
aF-0.9586862629194182
aF0.030858581662084415
aF-0.23099853182615365
aF0.0009179575470597387
aF0.9728672605506765
aa(lp133
F0.8692050525043659
aF-0.0356171002934124
aF0.1854651464209279
aF-0.21919274315472181
aF-0.016885468575285098
aF0.9755076631817419
aa(lp134
F0.681097894731099
aF0.71083794192862
aF0.12388998743874383
aF-0.17891429421518798
aF-0.013087398268956746
aF0.9836328223133749
aa(lp135
F0.5265827200438474
aF0.8447679087302615
aF0.07668247631424642
aF-0.1295912011419869
aF-0.0015420521556403347
aF0.9912503193531551
aa(lp136
F0.4527625062333267
aF0.8907179896338171
aF0.031769062065250424
aF-0.10749250018070733
aF0.01954134652810911
aF0.9938339553637713
aa(lp137
F0.4354341269517347
aF0.90005042189738
aF0.017126382628354937
aF-0.15518234902644099
aF0.03849882297432582
aF0.9865992117909284
aa(lp138
F0.4335465113060031
aF0.9010150586664595
aF0.005872064583790801
aF-0.29682430432309953
aF0.07068833949416616
aF0.9436986091137739
aa(lp139
F0.34622531660375977
aF0.92791113214326
aF-0.0837124618695057
aF-0.574359808261247
aF0.12371398545136601
aF-0.14150181654816532
aassg41
(dp140
S'LeftBackStraight'
p141
(lp142
(lp143
F0.9453374531124838
aF0.3208504539410401
aF-0.043937956659406835
aF-0.7127240247473899
aF-0.3788301066252713
aF-0.5367724446658164
aa(lp144
F0.9404645379116248
aF0.3270717231346505
aF-0.09077868500162989
aF-0.3018055709151877
aF-0.003884965337540016
aF-0.9273406145274083
aa(lp145
F0.932252095637038
aF0.3264480272735553
aF-0.15111972102216353
aF-0.10243815817662591
aF0.21369304088852914
aF-0.968547599487918
aa(lp146
F0.9341627863565384
aF0.2075577572526857
aF-0.27213047258523304
aF-0.03689298614444813
aF0.347772335631516
aF-0.9349665096494858
aa(lp147
F0.8988490335375249
aF0.010258636628634698
aF-0.40895028604380956
aF0.019440114943781065
aF0.37859972840535483
aF-0.9252738197134153
aa(lp148
F0.544701883306974
aF-0.6116476052922214
aF-0.4896263219110897
aF0.057471204391658544
aF0.3213720202220273
aF-0.9444154896972909
aa(lp149
F-0.012756945654094543
aF-0.9176079272399059
aF-0.30374269737250703
aF0.05391084758364648
aF0.2240752955858277
aF-0.9719713601339247
aa(lp150
F-0.49910406403477126
aF-0.8408203518589042
aF-0.0075389259080334
aF0.000279217153912297
aF0.08633129584242207
aF-0.993581865340336
aa(lp151
F-0.6896368730625013
aF-0.7006943070538783
aF0.17055007115736412
aF-0.05452324308895263
aF-0.036456967819835526
aF-0.9972513778677926
aa(lp152
F-0.7536119721962621
aF-0.6074866209753623
aF0.24252368609581412
aF-0.09489423171954328
aF-0.0827371081979277
aF-0.9914069891592889
aa(lp153
F-0.7899699653475559
aF-0.5477299358273044
aF0.2737170102882996
aF-0.15671865242148378
aF-0.09565572428357781
aF-0.9823416183127841
aa(lp154
F-0.7840106237534339
aF-0.5118938931111573
aF0.3493949983412176
aF-0.1758872904554837
aF-0.07546895665778988
aF-0.9812479767607427
aa(lp155
F-0.7972184689486405
aF-0.4632325949552526
aF0.3867162442250134
aF-0.20910347970560608
aF-0.014010545033638749
aF-0.976956676942029
aa(lp156
F-0.8194032428390366
aF-0.4265251101461413
aF0.38265437257174767
aF-0.24242870694113336
aF0.16128688422194673
aF-0.9510959236350075
aa(lp157
F-0.8619683596725967
aF-0.32672427894073675
aF0.3805773880509282
aF-0.0454580567829217
aF0.6951950510867528
aF-0.5682349222170843
aa(lp158
F-0.9288136792479694
aF-0.036519234105575664
aF0.020861345525376628
aF0.15869836225433195
aF0.9759578554134553
aF0.028861856575991333
aasS'Right'
p159
(lp160
(lp161
F-0.06041201694375725
aF0.5189766150868544
aF0.34199069022984474
aF0.8099908476586541
aF-0.3067505149448831
aF0.41780333284454335
aa(lp162
F0.3499852419507806
aF0.9242622404261887
aF0.14599987995931918
aF0.7861895367869409
aF-0.4775673150076664
aF0.08854447904159479
aa(lp163
F0.3528163083640633
aF0.9324934889497579
aF0.07460025995747756
aF0.36018210601411316
aF-0.24090898963602622
aF-0.8478049538253377
aa(lp164
F0.39141110083791447
aF0.9183049050685533
aF0.054298154942146605
aF0.06281509545188643
aF-0.11800592345142463
aF-0.9885395855087123
aa(lp165
F0.405635558762659
aF0.9136918665523014
aF0.021719195969108523
aF-0.0171295664422952
aF0.009889924080802638
aF-0.9987650125611403
aa(lp166
F0.4475239806604936
aF0.8924295965836724
aF0.03815112050795897
aF-0.03955430698702798
aF0.026367371040405475
aF-0.998640550718493
aa(lp167
F0.51760552288475
aF0.8510266573353066
aF0.07724736370352384
aF-0.011604849530875174
aF0.03261197004741108
aF-0.9993722425602212
aa(lp168
F0.7517524704330558
aF0.550404971251021
aF0.21892893974973385
aF-0.004246391331145289
aF0.05125193355991675
aF-0.9985014857079069
aa(lp169
F0.8490470060157255
aF-0.2597491653572867
aF0.2890145428725839
aF0.020825894838983602
aF0.07703554119949016
aF-0.99671294903522
aa(lp170
F0.5112880344333304
aF-0.825449166786156
aF0.12582423825314198
aF-0.0077605402285108715
aF0.1002616039205249
aF-0.9948202716235792
aa(lp171
F0.19476241121480078
aF-0.9769895701270982
aF0.004180828025530479
aF-0.014428678995662952
aF0.12241040532453094
aF-0.992326407233313
aa(lp172
F0.06058284300134986
aF-0.9949521303779333
aF-0.057660976378792236
aF-0.05432774482373797
aF0.13420920783315843
aF-0.9890134476024437
aa(lp173
F-0.05650528711486618
aF-0.992564648692849
aF-0.10054564585928878
aF-0.08905514152019156
aF0.1769980113904139
aF-0.9798273059312087
aa(lp174
F-0.1243635600749892
aF-0.9825761438855934
aF-0.1364731098841885
aF-0.1418482849618696
aF0.22310055117766608
aF-0.9640221118549914
aa(lp175
F-0.19167590181438252
aF-0.9657410631689587
aF-0.1702992999041202
aF-0.21270025095448747
aF0.2656891077790531
aF-0.9378998137842358
aa(lp176
F-0.2437957577899477
aF-0.9548892240525471
aF-0.16786024623935822
aF-0.3864378947076551
aF0.24306079736218925
aF-0.8879221761209078
aa(lp177
F-0.27932380887686575
aF-0.949639780388176
aF-0.13821661037114302
aF-0.5312926171301782
aF0.18340615684066883
aF-0.8085670002667426
aasS'RightGoStraight'
p178
(lp179
(lp180
F-0.853204431593647
aF-0.3937677414057921
aF-0.044487053773114356
aF0.7707449248935899
aF-0.16779471800254053
aF0.5975830133147864
aa(lp181
F-0.9628503111282904
aF0.19097101028486613
aF-0.04497151901319889
aF0.7734929429804775
aF-0.21867575115902707
aF0.5618091592220302
aa(lp182
F-0.8474215307544168
aF0.5143549881045119
aF0.07475998477632366
aF0.3186763823129561
aF-0.7679310196826263
aF0.2711549332075298
aa(lp183
F-0.7806436809721117
aF0.5891285671789621
aF0.19959799685935317
aF0.3228925785867513
aF-0.768691217530266
aF-0.4201267102560238
aa(lp184
F-0.7115047252439536
aF0.6400882478969844
aF0.28803912585330416
aF0.3321964378902787
aF-0.5006391784139697
aF-0.7922892651342834
aa(lp185
F-0.6883217797180037
aF0.642077170748674
aF0.3369571760486984
aF0.3328735061331238
aF-0.3627079188391716
aF-0.868755842889719
aa(lp186
F-0.6411838330415847
aF0.6967033359422201
aF0.3200008205696154
aF0.2931618272669701
aF-0.33415991408372714
aF-0.8944013634430558
aa(lp187
F-0.5366926414822865
aF0.7794273826406912
aF0.3106736280563656
aF0.18595046257061199
aF-0.3441760654019409
aF-0.9199993882948252
aa(lp188
F-0.22349406448275158
aF0.9006732882532279
aF0.16220004316856984
aF0.14836970161552276
aF-0.3482469991691181
aF-0.9252583609896569
aa(lp189
F0.815994204795515
aF0.20838645749744789
aF-0.2703399748435669
aF0.03643383031009097
aF-0.40016101495122963
aF-0.9146997194906457
aa(lp190
F0.9192728554914492
aF-0.2677567330773253
aF-0.26912837977088877
aF-0.07156300007493868
aF-0.3878767023811506
aF-0.9162478427366665
aa(lp191
F0.8557686698686827
aF-0.4619085955667202
aF-0.2281349953559549
aF-0.2533548510050844
aF-0.2932009443283535
aF-0.9183307227383923
aa(lp192
F0.7829919754860805
aF-0.5667294408541003
aF-0.24862294725095493
aF-0.4300696283183536
aF-0.15683015174588621
aF-0.8846302854335057
aa(lp193
F0.6792665601714097
aF-0.6324153058573763
aF-0.35727393861464135
aF-0.5258968092111718
aF-0.09528636395553328
aF-0.8438869017504061
aa(lp194
F0.5053524801930103
aF-0.5860730501627351
aF-0.6206063382665634
aF-0.6367009960053153
aF-0.2720867186931254
aF-0.708165177597863
aasssS'2'
p195
(dp196
g3
(dp197
sg41
(dp198
ss.